target datalayout = "e-m:e-p270:32:32-p271:32:32-p272:64:64-i64:64-i128:128-f80:128-n8:16:32:64-S128"
target triple = "x86_64-pc-linux-gnu"

%struct.CountEnvStringsData = type { i64, i64 }

; Function Attrs: nounwind uwtable
define internal zeroext i1 @CountEnvStrings(ptr noundef %0, ptr noundef %1, ptr noundef %2, ptr noundef %3) #0 {
  %5 = alloca ptr, align 8
  %6 = alloca ptr, align 8
  %7 = alloca ptr, align 8
  %8 = alloca ptr, align 8
  %9 = alloca ptr, align 8
  store ptr %0, ptr %5, align 8
  store ptr %1, ptr %6, align 8
  store ptr %2, ptr %7, align 8
  store ptr %3, ptr %8, align 8
  call void @llvm.lifetime.start.p0(i64 8, ptr %9) #7
  %10 = load ptr, ptr %5, align 8
  store ptr %10, ptr %9, align 8
  %11 = load ptr, ptr %7, align 8
  %12 = call i64 @SDL_strlen_REAL(ptr noundef %11)
  %13 = add i64 %12, 1
  %14 = load ptr, ptr %8, align 8
  %15 = call i64 @SDL_strlen_REAL(ptr noundef %14)
  %16 = add i64 %13, %15
  %17 = add i64 %16, 1
  %18 = load ptr, ptr %9, align 8
  %19 = getelementptr inbounds nuw %struct.CountEnvStringsData, ptr %18, i32 0, i32 1
  %20 = load i64, ptr %19, align 8
  %21 = add i64 %20, %17
  store i64 %21, ptr %19, align 8
  %22 = load ptr, ptr %9, align 8
  %23 = getelementptr inbounds nuw %struct.CountEnvStringsData, ptr %22, i32 0, i32 0
  %24 = load i64, ptr %23, align 8
  %25 = add i64 %24, 1
  store i64 %25, ptr %23, align 8
  call void @llvm.lifetime.end.p0(i64 8, ptr %9) #7
  ret i1 true
}