; Function Attrs: nounwind uwtable
define internal noundef zeroext i1 @CountEnvStrings(ptr noundef captures(none) %0, ptr readnone captures(none) %1, ptr noundef %2, ptr noundef %3) #0 {
  %5 = tail call i64 @SDL_strlen_REAL(ptr noundef %2) #11
  %6 = tail call i64 @SDL_strlen_REAL(ptr noundef %3) #11
  %7 = getelementptr inbounds nuw i8, ptr %0, i64 8
  %8 = load i64, ptr %7, align 8
  %9 = add i64 %5, 2
  %10 = add i64 %9, %6
  %11 = add i64 %10, %8
  store i64 %11, ptr %7, align 8
  %12 = load i64, ptr %0, align 8
  %13 = add i64 %12, 1
  store i64 %13, ptr %0, align 8
  ret i1 true
}